; Function Attrs: mustprogress norecurse uwtable
define internal fastcc noundef nonnull align 8 dereferenceable(64) ptr @_ZN2cvlsERNS_11FileStorageEPKc(ptr noundef nonnull align 8 dereferenceable(64) %0, ptr noundef %1) unnamed_addr #3 personality ptr @__gxx_personality_v0 {
  %3 = alloca %"class.std::__cxx11::basic_string", align 8
  %4 = alloca %"class.std::allocator", align 1
  call void @_ZNSaIcEC1Ev(ptr noundef nonnull align 1 dereferenceable(1) %4) #19
  invoke void @_ZNSt7__cxx1112basic_stringIcSt11char_traitsIcESaIcEEC1EPKcRKS3_(ptr noundef nonnull align 8 dereferenceable(32) %3, ptr noundef %1, ptr noundef nonnull align 1 dereferenceable(1) %4)
          to label %5 unwind label %8

5:                                                ; preds = %2
  %6 = invoke noundef nonnull align 8 dereferenceable(64) ptr @_ZN2cvlsERNS_11FileStorageERKNSt7__cxx1112basic_stringIcSt11char_traitsIcESaIcEEE(ptr noundef nonnull align 8 dereferenceable(64) %0, ptr noundef nonnull align 8 dereferenceable(32) %3)
          to label %7 unwind label %10

7:                                                ; preds = %5
  call void @_ZNSt7__cxx1112basic_stringIcSt11char_traitsIcESaIcEED1Ev(ptr noundef nonnull align 8 dereferenceable(32) %3) #19
  call void @_ZNSaIcED1Ev(ptr noundef nonnull align 1 dereferenceable(1) %4) #19
  ret ptr %6

8:                                                ; preds = %2
  %9 = landingpad { ptr, i32 }
          cleanup
  br label %12

10:                                               ; preds = %5
  %11 = landingpad { ptr, i32 }
          cleanup
  call void @_ZNSt7__cxx1112basic_stringIcSt11char_traitsIcESaIcEED1Ev(ptr noundef nonnull align 8 dereferenceable(32) %3) #19
  br label %12

12:                                               ; preds = %10, %8
  %.pn = phi { ptr, i32 } [ %11, %10 ], [ %9, %8 ]
  call void @_ZNSaIcED1Ev(ptr noundef nonnull align 1 dereferenceable(1) %4) #19
  resume { ptr, i32 } %.pn
}